target datalayout = "e-m:e-p270:32:32-p271:32:32-p272:64:64-i64:64-i128:128-f80:128-n8:16:32:64-S128"
target triple = "x86_64-pc-linux-gnu"

%struct.ident_t = type { i32, i32, i32, i32, ptr }
%"class.ncnn::Mat" = type { ptr, ptr, i64, i32, ptr, i32, i32, i32, i32, i32, i64 }

@1 = private unnamed_addr constant %struct.ident_t { i32 0, i32 514, i32 0, i32 22, ptr @0 }, align 8

; Function Attrs: noinline noreturn nounwind uwtable
define linkonce_odr hidden void @__clang_call_terminate(ptr noundef %0) #9 comdat {
  %2 = call ptr @__cxa_begin_catch(ptr %0) #8
  call void @_ZSt9terminatev() #17
  unreachable
}

; Function Attrs: alwaysinline mustprogress nounwind uwtable
define linkonce_odr hidden noundef ptr @_ZN4ncnn3Mat3rowIaEEPT_i(ptr noundef nonnull align 8 dereferenceable(72) %0, i32 noundef %1) #5 comdat align 2 {
  %3 = alloca ptr, align 8
  %4 = alloca i32, align 4
  store ptr %0, ptr %3, align 8, !tbaa !9
  store i32 %1, ptr %4, align 4, !tbaa !13
  %5 = load ptr, ptr %3, align 8
  %6 = getelementptr inbounds nuw %"class.ncnn::Mat", ptr %5, i32 0, i32 0
  %7 = load ptr, ptr %6, align 8, !tbaa !54
  %8 = getelementptr inbounds nuw %"class.ncnn::Mat", ptr %5, i32 0, i32 6
  %9 = load i32, ptr %8, align 4, !tbaa !41
  %10 = sext i32 %9 to i64
  %11 = load i32, ptr %4, align 4, !tbaa !13
  %12 = sext i32 %11 to i64
  %13 = mul i64 %10, %12
  %14 = getelementptr inbounds nuw %"class.ncnn::Mat", ptr %5, i32 0, i32 2
  %15 = load i64, ptr %14, align 8, !tbaa !32
  %16 = mul i64 %13, %15
  %17 = getelementptr inbounds nuw i8, ptr %7, i64 %16
  ret ptr %17
}

; Function Attrs: alwaysinline mustprogress nounwind uwtable
define linkonce_odr hidden noundef ptr @_ZNK4ncnn3Mat3rowIKaEEPKT_i(ptr noundef nonnull align 8 dereferenceable(72) %0, i32 noundef %1) #5 comdat align 2 {
  %3 = alloca ptr, align 8
  %4 = alloca i32, align 4
  store ptr %0, ptr %3, align 8, !tbaa !9
  store i32 %1, ptr %4, align 4, !tbaa !13
  %5 = load ptr, ptr %3, align 8
  %6 = getelementptr inbounds nuw %"class.ncnn::Mat", ptr %5, i32 0, i32 0
  %7 = load ptr, ptr %6, align 8, !tbaa !54
  %8 = getelementptr inbounds nuw %"class.ncnn::Mat", ptr %5, i32 0, i32 6
  %9 = load i32, ptr %8, align 4, !tbaa !41
  %10 = sext i32 %9 to i64
  %11 = load i32, ptr %4, align 4, !tbaa !13
  %12 = sext i32 %11 to i64
  %13 = mul i64 %10, %12
  %14 = getelementptr inbounds nuw %"class.ncnn::Mat", ptr %5, i32 0, i32 2
  %15 = load i64, ptr %14, align 8, !tbaa !32
  %16 = mul i64 %13, %15
  %17 = getelementptr inbounds nuw i8, ptr %7, i64 %16
  ret ptr %17
}

; Function Attrs: alwaysinline norecurse nounwind uwtable
define internal void @_ZNK4ncnn15Packing_x86_avx12forward_int8ERKNS_3MatERS1_RKNS_6OptionE.omp_outlined.24(ptr noalias noundef %0, ptr noalias noundef %1, ptr noundef nonnull align 4 dereferenceable(4) %2, ptr noundef nonnull align 8 dereferenceable(72) %3, ptr noundef nonnull align 8 dereferenceable(72) %4, ptr noundef nonnull align 4 dereferenceable(4) %5) #14 personality ptr @__gxx_personality_v0 {
  %7 = alloca ptr, align 8
  %8 = alloca ptr, align 8
  %9 = alloca ptr, align 8
  %10 = alloca ptr, align 8
  %11 = alloca ptr, align 8
  %12 = alloca ptr, align 8
  %13 = alloca ptr, align 8
  %14 = alloca ptr, align 8
  %15 = alloca i32, align 4
  %16 = alloca i32, align 4
  %17 = alloca i32, align 4
  %18 = alloca i32, align 4
  %19 = alloca i32, align 4
  %20 = alloca i32, align 4
  %21 = alloca i32, align 4
  %22 = alloca i32, align 4
  %23 = alloca i32, align 4
  %24 = alloca ptr, align 8
  %25 = alloca ptr, align 8
  %26 = alloca ptr, align 8
  %27 = alloca ptr, align 8
  %28 = alloca ptr, align 8
  %29 = alloca ptr, align 8
  %30 = alloca ptr, align 8
  %31 = alloca ptr, align 8
  %32 = alloca ptr, align 8
  %33 = alloca i32, align 4
  store ptr %0, ptr %7, align 8, !tbaa !56
  store ptr %1, ptr %8, align 8, !tbaa !56
  store ptr %2, ptr %9, align 8, !tbaa !56
  store ptr %3, ptr %10, align 8, !tbaa !9
  store ptr %4, ptr %11, align 8, !tbaa !9
  store ptr %5, ptr %12, align 8, !tbaa !56
  %34 = load ptr, ptr %9, align 8, !tbaa !56
  %35 = load ptr, ptr %10, align 8, !tbaa !9
  %36 = load ptr, ptr %11, align 8, !tbaa !9
  %37 = load ptr, ptr %12, align 8, !tbaa !56
  store ptr %35, ptr %13, align 8
  store ptr %36, ptr %14, align 8
  call void @llvm.lifetime.start.p0(i64 4, ptr %15) #8
  call void @llvm.lifetime.start.p0(i64 4, ptr %16) #8
  %38 = load i32, ptr %34, align 4, !tbaa !13
  store i32 %38, ptr %16, align 4, !tbaa !13
  call void @llvm.lifetime.start.p0(i64 4, ptr %17) #8
  %39 = load i32, ptr %16, align 4, !tbaa !13
  %40 = sub nsw i32 %39, 0
  %41 = sdiv i32 %40, 1
  %42 = sub nsw i32 %41, 1
  store i32 %42, ptr %17, align 4, !tbaa !13
  call void @llvm.lifetime.start.p0(i64 4, ptr %18) #8
  store i32 0, ptr %18, align 4, !tbaa !13
  call void @llvm.lifetime.end.p0(i64 4, ptr %18) #8
  %43 = load i32, ptr %16, align 4, !tbaa !13
  %44 = icmp slt i32 0, %43
  br i1 %44, label %45, label %178

45:                                               ; preds = %6
  call void @llvm.lifetime.start.p0(i64 4, ptr %19) #8
  store i32 0, ptr %19, align 4, !tbaa !13
  call void @llvm.lifetime.start.p0(i64 4, ptr %20) #8
  %46 = load i32, ptr %17, align 4, !tbaa !13
  store i32 %46, ptr %20, align 4, !tbaa !13
  call void @llvm.lifetime.start.p0(i64 4, ptr %21) #8
  store i32 1, ptr %21, align 4, !tbaa !13
  call void @llvm.lifetime.start.p0(i64 4, ptr %22) #8
  store i32 0, ptr %22, align 4, !tbaa !13
  call void @llvm.lifetime.start.p0(i64 4, ptr %23) #8
  %47 = load ptr, ptr %7, align 8
  %48 = load i32, ptr %47, align 4, !tbaa !13
  call void @__kmpc_for_static_init_4(ptr @1, i32 %48, i32 34, ptr %22, ptr %19, ptr %20, ptr %21, i32 1, i32 1)
  %49 = load i32, ptr %20, align 4, !tbaa !13
  %50 = load i32, ptr %17, align 4, !tbaa !13
  %51 = icmp sgt i32 %49, %50
  br i1 %51, label %52, label %54

52:                                               ; preds = %45
  %53 = load i32, ptr %17, align 4, !tbaa !13
  br label %56

54:                                               ; preds = %45
  %55 = load i32, ptr %20, align 4, !tbaa !13
  br label %56

56:                                               ; preds = %54, %52
  %57 = phi i32 [ %53, %52 ], [ %55, %54 ]
  store i32 %57, ptr %20, align 4, !tbaa !13
  %58 = load i32, ptr %19, align 4, !tbaa !13
  store i32 %58, ptr %15, align 4, !tbaa !13
  br label %59

59:                                               ; preds = %171, %56
  %60 = load i32, ptr %15, align 4, !tbaa !13
  %61 = load i32, ptr %20, align 4, !tbaa !13
  %62 = icmp sle i32 %60, %61
  br i1 %62, label %64, label %63

63:                                               ; preds = %59
  br label %174

64:                                               ; preds = %59
  %65 = load i32, ptr %15, align 4, !tbaa !13
  %66 = mul nsw i32 %65, 1
  %67 = add nsw i32 0, %66
  store i32 %67, ptr %23, align 4, !tbaa !13
  call void @llvm.lifetime.start.p0(i64 8, ptr %24) #8
  %68 = load ptr, ptr %13, align 8, !tbaa !9
  %69 = load i32, ptr %23, align 4, !tbaa !13
  %70 = invoke noundef ptr @_ZNK4ncnn3Mat3rowIKaEEPKT_i(ptr noundef nonnull align 8 dereferenceable(72) %68, i32 noundef %69)
          to label %71 unwind label %179

71:                                               ; preds = %64
  store ptr %70, ptr %24, align 8, !tbaa !99
  call void @llvm.lifetime.start.p0(i64 8, ptr %25) #8
  %72 = load ptr, ptr %14, align 8, !tbaa !9
  %73 = load i32, ptr %23, align 4, !tbaa !13
  %74 = mul nsw i32 %73, 8
  %75 = invoke noundef ptr @_ZN4ncnn3Mat3rowIaEEPT_i(ptr noundef nonnull align 8 dereferenceable(72) %72, i32 noundef %74)
          to label %76 unwind label %179

76:                                               ; preds = %71
  store ptr %75, ptr %25, align 8, !tbaa !99
  call void @llvm.lifetime.start.p0(i64 8, ptr %26) #8
  %77 = load ptr, ptr %14, align 8, !tbaa !9
  %78 = load i32, ptr %23, align 4, !tbaa !13
  %79 = mul nsw i32 %78, 8
  %80 = add nsw i32 %79, 1
  %81 = invoke noundef ptr @_ZN4ncnn3Mat3rowIaEEPT_i(ptr noundef nonnull align 8 dereferenceable(72) %77, i32 noundef %80)
          to label %82 unwind label %179

82:                                               ; preds = %76
  store ptr %81, ptr %26, align 8, !tbaa !99
  call void @llvm.lifetime.start.p0(i64 8, ptr %27) #8
  %83 = load ptr, ptr %14, align 8, !tbaa !9
  %84 = load i32, ptr %23, align 4, !tbaa !13
  %85 = mul nsw i32 %84, 8
  %86 = add nsw i32 %85, 2
  %87 = invoke noundef ptr @_ZN4ncnn3Mat3rowIaEEPT_i(ptr noundef nonnull align 8 dereferenceable(72) %83, i32 noundef %86)
          to label %88 unwind label %179

88:                                               ; preds = %82
  store ptr %87, ptr %27, align 8, !tbaa !99
  call void @llvm.lifetime.start.p0(i64 8, ptr %28) #8
  %89 = load ptr, ptr %14, align 8, !tbaa !9
  %90 = load i32, ptr %23, align 4, !tbaa !13
  %91 = mul nsw i32 %90, 8
  %92 = add nsw i32 %91, 3
  %93 = invoke noundef ptr @_ZN4ncnn3Mat3rowIaEEPT_i(ptr noundef nonnull align 8 dereferenceable(72) %89, i32 noundef %92)
          to label %94 unwind label %179

94:                                               ; preds = %88
  store ptr %93, ptr %28, align 8, !tbaa !99
  call void @llvm.lifetime.start.p0(i64 8, ptr %29) #8
  %95 = load ptr, ptr %14, align 8, !tbaa !9
  %96 = load i32, ptr %23, align 4, !tbaa !13
  %97 = mul nsw i32 %96, 8
  %98 = add nsw i32 %97, 4
  %99 = invoke noundef ptr @_ZN4ncnn3Mat3rowIaEEPT_i(ptr noundef nonnull align 8 dereferenceable(72) %95, i32 noundef %98)
          to label %100 unwind label %179

100:                                              ; preds = %94
  store ptr %99, ptr %29, align 8, !tbaa !99
  call void @llvm.lifetime.start.p0(i64 8, ptr %30) #8
  %101 = load ptr, ptr %14, align 8, !tbaa !9
  %102 = load i32, ptr %23, align 4, !tbaa !13
  %103 = mul nsw i32 %102, 8
  %104 = add nsw i32 %103, 5
  %105 = invoke noundef ptr @_ZN4ncnn3Mat3rowIaEEPT_i(ptr noundef nonnull align 8 dereferenceable(72) %101, i32 noundef %104)
          to label %106 unwind label %179

106:                                              ; preds = %100
  store ptr %105, ptr %30, align 8, !tbaa !99
  call void @llvm.lifetime.start.p0(i64 8, ptr %31) #8
  %107 = load ptr, ptr %14, align 8, !tbaa !9
  %108 = load i32, ptr %23, align 4, !tbaa !13
  %109 = mul nsw i32 %108, 8
  %110 = add nsw i32 %109, 6
  %111 = invoke noundef ptr @_ZN4ncnn3Mat3rowIaEEPT_i(ptr noundef nonnull align 8 dereferenceable(72) %107, i32 noundef %110)
          to label %112 unwind label %179

112:                                              ; preds = %106
  store ptr %111, ptr %31, align 8, !tbaa !99
  call void @llvm.lifetime.start.p0(i64 8, ptr %32) #8
  %113 = load ptr, ptr %14, align 8, !tbaa !9
  %114 = load i32, ptr %23, align 4, !tbaa !13
  %115 = mul nsw i32 %114, 8
  %116 = add nsw i32 %115, 7
  %117 = invoke noundef ptr @_ZN4ncnn3Mat3rowIaEEPT_i(ptr noundef nonnull align 8 dereferenceable(72) %113, i32 noundef %116)
          to label %118 unwind label %179

118:                                              ; preds = %112
  store ptr %117, ptr %32, align 8, !tbaa !99
  call void @llvm.lifetime.start.p0(i64 4, ptr %33) #8
  store i32 0, ptr %33, align 4, !tbaa !13
  br label %119

119:                                              ; preds = %166, %118
  %120 = load i32, ptr %33, align 4, !tbaa !13
  %121 = load i32, ptr %37, align 4, !tbaa !13
  %122 = icmp slt i32 %120, %121
  br i1 %122, label %123, label %169

123:                                              ; preds = %119
  %124 = load ptr, ptr %24, align 8, !tbaa !99
  %125 = getelementptr inbounds i8, ptr %124, i64 0
  %126 = load i8, ptr %125, align 1, !tbaa !59
  %127 = load ptr, ptr %25, align 8, !tbaa !99
  %128 = getelementptr inbounds nuw i8, ptr %127, i32 1
  store ptr %128, ptr %25, align 8, !tbaa !99
  store i8 %126, ptr %127, align 1, !tbaa !59
  %129 = load ptr, ptr %24, align 8, !tbaa !99
  %130 = getelementptr inbounds i8, ptr %129, i64 1
  %131 = load i8, ptr %130, align 1, !tbaa !59
  %132 = load ptr, ptr %26, align 8, !tbaa !99
  %133 = getelementptr inbounds nuw i8, ptr %132, i32 1
  store ptr %133, ptr %26, align 8, !tbaa !99
  store i8 %131, ptr %132, align 1, !tbaa !59
  %134 = load ptr, ptr %24, align 8, !tbaa !99
  %135 = getelementptr inbounds i8, ptr %134, i64 2
  %136 = load i8, ptr %135, align 1, !tbaa !59
  %137 = load ptr, ptr %27, align 8, !tbaa !99
  %138 = getelementptr inbounds nuw i8, ptr %137, i32 1
  store ptr %138, ptr %27, align 8, !tbaa !99
  store i8 %136, ptr %137, align 1, !tbaa !59
  %139 = load ptr, ptr %24, align 8, !tbaa !99
  %140 = getelementptr inbounds i8, ptr %139, i64 3
  %141 = load i8, ptr %140, align 1, !tbaa !59
  %142 = load ptr, ptr %28, align 8, !tbaa !99
  %143 = getelementptr inbounds nuw i8, ptr %142, i32 1
  store ptr %143, ptr %28, align 8, !tbaa !99
  store i8 %141, ptr %142, align 1, !tbaa !59
  %144 = load ptr, ptr %24, align 8, !tbaa !99
  %145 = getelementptr inbounds i8, ptr %144, i64 4
  %146 = load i8, ptr %145, align 1, !tbaa !59
  %147 = load ptr, ptr %29, align 8, !tbaa !99
  %148 = getelementptr inbounds nuw i8, ptr %147, i32 1
  store ptr %148, ptr %29, align 8, !tbaa !99
  store i8 %146, ptr %147, align 1, !tbaa !59
  %149 = load ptr, ptr %24, align 8, !tbaa !99
  %150 = getelementptr inbounds i8, ptr %149, i64 5
  %151 = load i8, ptr %150, align 1, !tbaa !59
  %152 = load ptr, ptr %30, align 8, !tbaa !99
  %153 = getelementptr inbounds nuw i8, ptr %152, i32 1
  store ptr %153, ptr %30, align 8, !tbaa !99
  store i8 %151, ptr %152, align 1, !tbaa !59
  %154 = load ptr, ptr %24, align 8, !tbaa !99
  %155 = getelementptr inbounds i8, ptr %154, i64 6
  %156 = load i8, ptr %155, align 1, !tbaa !59
  %157 = load ptr, ptr %31, align 8, !tbaa !99
  %158 = getelementptr inbounds nuw i8, ptr %157, i32 1
  store ptr %158, ptr %31, align 8, !tbaa !99
  store i8 %156, ptr %157, align 1, !tbaa !59
  %159 = load ptr, ptr %24, align 8, !tbaa !99
  %160 = getelementptr inbounds i8, ptr %159, i64 7
  %161 = load i8, ptr %160, align 1, !tbaa !59
  %162 = load ptr, ptr %32, align 8, !tbaa !99
  %163 = getelementptr inbounds nuw i8, ptr %162, i32 1
  store ptr %163, ptr %32, align 8, !tbaa !99
  store i8 %161, ptr %162, align 1, !tbaa !59
  %164 = load ptr, ptr %24, align 8, !tbaa !99
  %165 = getelementptr inbounds i8, ptr %164, i64 8
  store ptr %165, ptr %24, align 8, !tbaa !99
  br label %166

166:                                              ; preds = %123
  %167 = load i32, ptr %33, align 4, !tbaa !13
  %168 = add nsw i32 %167, 1
  store i32 %168, ptr %33, align 4, !tbaa !13
  br label %119, !llvm.loop !101

169:                                              ; preds = %119
  call void @llvm.lifetime.end.p0(i64 4, ptr %33) #8
  call void @llvm.lifetime.end.p0(i64 8, ptr %32) #8
  call void @llvm.lifetime.end.p0(i64 8, ptr %31) #8
  call void @llvm.lifetime.end.p0(i64 8, ptr %30) #8
  call void @llvm.lifetime.end.p0(i64 8, ptr %29) #8
  call void @llvm.lifetime.end.p0(i64 8, ptr %28) #8
  call void @llvm.lifetime.end.p0(i64 8, ptr %27) #8
  call void @llvm.lifetime.end.p0(i64 8, ptr %26) #8
  call void @llvm.lifetime.end.p0(i64 8, ptr %25) #8
  call void @llvm.lifetime.end.p0(i64 8, ptr %24) #8
  br label %170

170:                                              ; preds = %169
  br label %171

171:                                              ; preds = %170
  %172 = load i32, ptr %15, align 4, !tbaa !13
  %173 = add nsw i32 %172, 1
  store i32 %173, ptr %15, align 4, !tbaa !13
  br label %59

174:                                              ; preds = %63
  br label %175

175:                                              ; preds = %174
  %176 = load ptr, ptr %7, align 8
  %177 = load i32, ptr %176, align 4, !tbaa !13
  call void @__kmpc_for_static_fini(ptr @1, i32 %177)
  call void @llvm.lifetime.end.p0(i64 4, ptr %23) #8
  call void @llvm.lifetime.end.p0(i64 4, ptr %22) #8
  call void @llvm.lifetime.end.p0(i64 4, ptr %21) #8
  call void @llvm.lifetime.end.p0(i64 4, ptr %20) #8
  call void @llvm.lifetime.end.p0(i64 4, ptr %19) #8
  br label %178

178:                                              ; preds = %175, %6
  call void @llvm.lifetime.end.p0(i64 4, ptr %17) #8
  call void @llvm.lifetime.end.p0(i64 4, ptr %16) #8
  call void @llvm.lifetime.end.p0(i64 4, ptr %15) #8
  ret void

179:                                              ; preds = %112, %106, %100, %94, %88, %82, %76, %71, %64
  %180 = landingpad { ptr, i32 }
          catch ptr null
  %181 = extractvalue { ptr, i32 } %180, 0
  call void @__clang_call_terminate(ptr %181) #17
  unreachable
}